target datalayout = "e-m:e-p270:32:32-p271:32:32-p272:64:64-i64:64-i128:128-f80:128-n8:16:32:64-S128"
target triple = "x86_64-pc-linux-gnu"

@.str.233 = private unnamed_addr constant [2 x i8] c"\0A\00", align 1
@.str.445 = private unnamed_addr constant [18 x i8] c"    cd <modname>\0A\00", align 1
@.str.446 = private unnamed_addr constant [57 x i8] c"This is just a shortcut for 'select -module <modname>'.\0A\00", align 1
@.str.447 = private unnamed_addr constant [19 x i8] c"    cd <cellname>\0A\00", align 1
@.str.448 = private unnamed_addr constant [70 x i8] c"When no module with the specified name is found, but there is a cell\0A\00", align 1
@.str.449 = private unnamed_addr constant [72 x i8] c"with the specified name in the current module, then this is equivalent\0A\00", align 1
@.str.450 = private unnamed_addr constant [21 x i8] c"to 'cd <celltype>'.\0A\00", align 1
@.str.451 = private unnamed_addr constant [11 x i8] c"    cd ..\0A\00", align 1
@.str.452 = private unnamed_addr constant [77 x i8] c"Remove trailing substrings that start with '.' in current module name until\0A\00", align 1
@.str.453 = private unnamed_addr constant [78 x i8] c"the name of a module in the current design is generated, then switch to that\0A\00", align 1
@.str.454 = private unnamed_addr constant [48 x i8] c"module. Otherwise clear the current selection.\0A\00", align 1
@.str.455 = private unnamed_addr constant [8 x i8] c"    cd\0A\00", align 1
@.str.456 = private unnamed_addr constant [46 x i8] c"This is just a shortcut for 'select -clear'.\0A\00", align 1

; Function Attrs: mustprogress uwtable
define internal void @_ZN12_GLOBAL__N_16CdPass4helpEv(ptr noundef nonnull align 8 dereferenceable(104) %0) unnamed_addr #5 align 2 {
  %2 = alloca ptr, align 8
  store ptr %0, ptr %2, align 8, !tbaa !129
  call void (ptr, ...) @_ZN5Yosys3logEPKcz(ptr noundef @.str.233)
  call void (ptr, ...) @_ZN5Yosys3logEPKcz(ptr noundef @.str.445)
  call void (ptr, ...) @_ZN5Yosys3logEPKcz(ptr noundef @.str.233)
  call void (ptr, ...) @_ZN5Yosys3logEPKcz(ptr noundef @.str.446)
  call void (ptr, ...) @_ZN5Yosys3logEPKcz(ptr noundef @.str.233)
  call void (ptr, ...) @_ZN5Yosys3logEPKcz(ptr noundef @.str.233)
  call void (ptr, ...) @_ZN5Yosys3logEPKcz(ptr noundef @.str.447)
  call void (ptr, ...) @_ZN5Yosys3logEPKcz(ptr noundef @.str.233)
  call void (ptr, ...) @_ZN5Yosys3logEPKcz(ptr noundef @.str.448)
  call void (ptr, ...) @_ZN5Yosys3logEPKcz(ptr noundef @.str.449)
  call void (ptr, ...) @_ZN5Yosys3logEPKcz(ptr noundef @.str.450)
  call void (ptr, ...) @_ZN5Yosys3logEPKcz(ptr noundef @.str.233)
  call void (ptr, ...) @_ZN5Yosys3logEPKcz(ptr noundef @.str.233)
  call void (ptr, ...) @_ZN5Yosys3logEPKcz(ptr noundef @.str.451)
  call void (ptr, ...) @_ZN5Yosys3logEPKcz(ptr noundef @.str.233)
  call void (ptr, ...) @_ZN5Yosys3logEPKcz(ptr noundef @.str.452)
  call void (ptr, ...) @_ZN5Yosys3logEPKcz(ptr noundef @.str.453)
  call void (ptr, ...) @_ZN5Yosys3logEPKcz(ptr noundef @.str.454)
  call void (ptr, ...) @_ZN5Yosys3logEPKcz(ptr noundef @.str.233)
  call void (ptr, ...) @_ZN5Yosys3logEPKcz(ptr noundef @.str.233)
  call void (ptr, ...) @_ZN5Yosys3logEPKcz(ptr noundef @.str.455)
  call void (ptr, ...) @_ZN5Yosys3logEPKcz(ptr noundef @.str.233)
  call void (ptr, ...) @_ZN5Yosys3logEPKcz(ptr noundef @.str.456)
  call void (ptr, ...) @_ZN5Yosys3logEPKcz(ptr noundef @.str.233)
  ret void
}